; Function Attrs: nounwind uwtable
define i32 @Gia_ManAssignNumbers(ptr noundef %0) local_unnamed_addr #0 {
  tail call void @Gia_ManFillValue(ptr noundef %0) #18
  %2 = getelementptr inbounds nuw i8, ptr %0, i64 64
  %3 = load ptr, ptr %2, align 8, !tbaa !62
  %4 = getelementptr i8, ptr %3, i64 4
  %.val21 = load i32, ptr %4, align 4, !tbaa !49
  %5 = icmp sgt i32 %.val21, 0
  br i1 %5, label %.lr.ph, label %.critedge

.lr.ph:                                           ; preds = %1
  %6 = getelementptr i8, ptr %0, i64 32
  %.val23 = load ptr, ptr %6, align 8, !tbaa !58
  %.not = icmp eq ptr %.val23, null
  br i1 %.not, label %.critedge, label %.lr.ph.split

.lr.ph.split:                                     ; preds = %.lr.ph
  %7 = getelementptr i8, ptr %3, i64 8
  %.val24.val = load ptr, ptr %7, align 8, !tbaa !17
  %wide.trip.count = zext nneg i32 %.val21 to i64
  br label %8

8:                                                ; preds = %.lr.ph.split, %8
  %indvars.iv = phi i64 [ 0, %.lr.ph.split ], [ %indvars.iv.next, %8 ]
  %indvars34 = trunc i64 %indvars.iv to i32
  %9 = getelementptr inbounds nuw i32, ptr %.val24.val, i64 %indvars.iv
  %10 = load i32, ptr %9, align 4, !tbaa !20
  %11 = sext i32 %10 to i64
  %indvars.iv.next = add nuw nsw i64 %indvars.iv, 1
  %12 = getelementptr inbounds %struct.Gia_Obj_t_, ptr %.val23, i64 %11, i32 1
  store i32 %indvars34, ptr %12, align 4, !tbaa !63
  %exitcond.not = icmp eq i64 %indvars.iv.next, %wide.trip.count
  br i1 %exitcond.not, label %.critedge, label %8, !llvm.loop !65

.critedge:                                        ; preds = %8, %.lr.ph, %1
  %.0.lcssa = phi i32 [ 0, %1 ], [ 0, %.lr.ph ], [ %.val21, %8 ]
  %13 = getelementptr i8, ptr %0, i64 24
  %.val = load i32, ptr %13, align 8, !tbaa !29
  %14 = icmp sgt i32 %.val, 1
  br i1 %14, label %.lr.ph32, label %._crit_edge

.lr.ph32:                                         ; preds = %.critedge
  %15 = getelementptr i8, ptr %0, i64 264
  %.val20 = load ptr, ptr %15, align 8, !tbaa !48
  %16 = getelementptr i8, ptr %.val20, i64 8
  %.val20.val = load ptr, ptr %16, align 8, !tbaa !17
  %17 = getelementptr i8, ptr %0, i64 32
  %wide.trip.count40 = zext nneg i32 %.val to i64
  br label %18

18:                                               ; preds = %.lr.ph32, %24
  %indvars.iv37 = phi i64 [ 1, %.lr.ph32 ], [ %indvars.iv.next38, %24 ]
  %.131 = phi i32 [ %.0.lcssa, %.lr.ph32 ], [ %.2, %24 ]
  %19 = getelementptr inbounds nuw i32, ptr %.val20.val, i64 %indvars.iv37
  %20 = load i32, ptr %19, align 4, !tbaa !20
  %.not25 = icmp eq i32 %20, 0
  br i1 %.not25, label %24, label %21

21:                                               ; preds = %18
  %22 = add nsw i32 %.131, 1
  %.val22 = load ptr, ptr %17, align 8, !tbaa !58
  %23 = getelementptr inbounds nuw %struct.Gia_Obj_t_, ptr %.val22, i64 %indvars.iv37, i32 1
  store i32 %.131, ptr %23, align 4, !tbaa !63
  br label %24

24:                                               ; preds = %21, %18
  %.2 = phi i32 [ %22, %21 ], [ %.131, %18 ]
  %indvars.iv.next38 = add nuw nsw i64 %indvars.iv37, 1
  %exitcond41.not = icmp eq i64 %indvars.iv.next38, %wide.trip.count40
  br i1 %exitcond41.not, label %._crit_edge, label %18, !llvm.loop !66

._crit_edge:                                      ; preds = %24, %.critedge
  %.1.lcssa = phi i32 [ %.0.lcssa, %.critedge ], [ %.2, %24 ]
  ret i32 %.1.lcssa
}